; Function Attrs: mustprogress nofree nounwind willreturn memory(write) uwtable
define internal noundef double @_ZN8QuantLib12_GLOBAL__N_13f_8Edd(double noundef %_nu, double noundef %_lambda) #13 {
entry:
  %call.i = tail call noundef double @pow(double noundef %_lambda, double noundef 8.000000e+00) #35, !tbaa !57
  %call.i43 = tail call noundef double @pow(double noundef %_lambda, double noundef 7.000000e+00) #35, !tbaa !57
  %mul = fmul double %call.i43, 8.000000e+00
  %add = fadd double %_nu, 1.400000e+01
  %0 = tail call double @llvm.fmuladd.f64(double %mul, double %add, double %call.i)
  %call.i44 = tail call noundef double @pow(double noundef %_lambda, double noundef 6.000000e+00) #35, !tbaa !57
  %mul4 = fmul double %call.i44, 2.800000e+01
  %1 = tail call double @llvm.fmuladd.f64(double %_nu, double 2.600000e+01, double 1.680000e+02)
  %square = fmul double %_nu, %_nu
  %add7 = fadd double %1, %square
  %2 = tail call double @llvm.fmuladd.f64(double %mul4, double %add7, double %0)
  %call.i46 = tail call noundef double @pow(double noundef %_lambda, double noundef 5.000000e+00) #35, !tbaa !57
  %mul10 = fmul double %call.i46, 5.600000e+01
  %3 = tail call double @llvm.fmuladd.f64(double %_nu, double 4.280000e+02, double 1.680000e+03)
  %4 = tail call double @llvm.fmuladd.f64(double %square, double 3.600000e+01, double %3)
  %call.i48 = tail call noundef double @pow(double noundef %_nu, double noundef 3.000000e+00) #35, !tbaa !57
  %add15 = fadd double %4, %call.i48
  %5 = tail call double @llvm.fmuladd.f64(double %mul10, double %add15, double %2)
  %call.i49 = tail call noundef double @pow(double noundef %_lambda, double noundef 4.000000e+00) #35, !tbaa !57
  %mul18 = fmul double %call.i49, 7.000000e+01
  %6 = tail call double @llvm.fmuladd.f64(double %_nu, double 5.104000e+03, double 1.344000e+04)
  %7 = tail call double @llvm.fmuladd.f64(double %square, double 7.160000e+02, double %6)
  %call.i51 = tail call noundef double @pow(double noundef %_nu, double noundef 3.000000e+00) #35, !tbaa !57
  %8 = tail call double @llvm.fmuladd.f64(double %call.i51, double 4.400000e+01, double %7)
  %call.i52 = tail call noundef double @pow(double noundef %_nu, double noundef 4.000000e+00) #35, !tbaa !57
  %add25 = fadd double %8, %call.i52
  %9 = tail call double @llvm.fmuladd.f64(double %mul18, double %add25, double %5)
  %call.i53 = tail call noundef double @pow(double noundef %_lambda, double noundef 3.000000e+00) #35, !tbaa !57
  %mul28 = fmul double %call.i53, 5.600000e+01
  %10 = tail call double @llvm.fmuladd.f64(double %_nu, double 4.406400e+04, double 8.064000e+04)
  %11 = tail call double @llvm.fmuladd.f64(double %square, double 9.400000e+03, double %10)
  %call.i55 = tail call noundef double @pow(double noundef %_nu, double noundef 3.000000e+00) #35, !tbaa !57
  %12 = tail call double @llvm.fmuladd.f64(double %call.i55, double 9.800000e+02, double %11)
  %call.i56 = tail call noundef double @pow(double noundef %_nu, double noundef 4.000000e+00) #35, !tbaa !57
  %13 = tail call double @llvm.fmuladd.f64(double %call.i56, double 5.000000e+01, double %12)
  %call.i57 = tail call noundef double @pow(double noundef %_nu, double noundef 5.000000e+00) #35, !tbaa !57
  %add37 = fadd double %13, %call.i57
  %14 = tail call double @llvm.fmuladd.f64(double %mul28, double %add37, double %9)
  %square79 = fmul double %_lambda, %_lambda
  %mul40 = fmul double %square79, 2.800000e+01
  %15 = tail call double @llvm.fmuladd.f64(double %_nu, double 2.568960e+05, double 3.225600e+05)
  %16 = tail call double @llvm.fmuladd.f64(double %square, double 8.166400e+04, double %15)
  %call.i60 = tail call noundef double @pow(double noundef %_nu, double noundef 3.000000e+00) #35, !tbaa !57
  %17 = tail call double @llvm.fmuladd.f64(double %call.i60, double 1.332000e+04, double %16)
  %call.i61 = tail call noundef double @pow(double noundef %_nu, double noundef 4.000000e+00) #35, !tbaa !57
  %18 = tail call double @llvm.fmuladd.f64(double %call.i61, double 1.180000e+03, double %17)
  %call.i62 = tail call noundef double @pow(double noundef %_nu, double noundef 5.000000e+00) #35, !tbaa !57
  %19 = tail call double @llvm.fmuladd.f64(double %call.i62, double 5.400000e+01, double %18)
  %call.i63 = tail call noundef double @pow(double noundef %_nu, double noundef 6.000000e+00) #35, !tbaa !57
  %add51 = fadd double %19, %call.i63
  %20 = tail call double @llvm.fmuladd.f64(double %mul40, double %add51, double %14)
  %mul53 = fmul double %_lambda, 8.000000e+00
  %21 = tail call double @llvm.fmuladd.f64(double %_nu, double 8.363520e+05, double 6.451200e+05)
  %22 = tail call double @llvm.fmuladd.f64(double %square, double 4.202240e+05, double %21)
  %call.i65 = tail call noundef double @pow(double noundef %_nu, double noundef 3.000000e+00) #35, !tbaa !57
  %23 = tail call double @llvm.fmuladd.f64(double %call.i65, double 1.083040e+05, double %22)
  %call.i66 = tail call noundef double @pow(double noundef %_nu, double noundef 4.000000e+00) #35, !tbaa !57
  %24 = tail call double @llvm.fmuladd.f64(double %call.i66, double 1.568000e+04, double %23)
  %call.i67 = tail call noundef double @pow(double noundef %_nu, double noundef 5.000000e+00) #35, !tbaa !57
  %25 = tail call double @llvm.fmuladd.f64(double %call.i67, double 1.288000e+03, double %24)
  %call.i68 = tail call noundef double @pow(double noundef %_nu, double noundef 6.000000e+00) #35, !tbaa !57
  %26 = tail call double @llvm.fmuladd.f64(double %call.i68, double 5.600000e+01, double %25)
  %call.i69 = tail call noundef double @pow(double noundef %_nu, double noundef 7.000000e+00) #35, !tbaa !57
  %add66 = fadd double %26, %call.i69
  %27 = tail call double @llvm.fmuladd.f64(double %mul53, double %add66, double %20)
  %call.i71 = tail call noundef double @pow(double noundef %_nu, double noundef 3.000000e+00) #35, !tbaa !57
  %28 = tail call double @llvm.fmuladd.f64(double %call.i71, double 1.083040e+05, double %22)
  %call.i72 = tail call noundef double @pow(double noundef %_nu, double noundef 4.000000e+00) #35, !tbaa !57
  %29 = tail call double @llvm.fmuladd.f64(double %call.i72, double 1.568000e+04, double %28)
  %call.i73 = tail call noundef double @pow(double noundef %_nu, double noundef 5.000000e+00) #35, !tbaa !57
  %30 = tail call double @llvm.fmuladd.f64(double %call.i73, double 1.288000e+03, double %29)
  %call.i74 = tail call noundef double @pow(double noundef %_nu, double noundef 6.000000e+00) #35, !tbaa !57
  %31 = tail call double @llvm.fmuladd.f64(double %call.i74, double 5.600000e+01, double %30)
  %call.i75 = tail call noundef double @pow(double noundef %_nu, double noundef 7.000000e+00) #35, !tbaa !57
  %add80 = fadd double %31, %call.i75
  %32 = tail call double @llvm.fmuladd.f64(double %_nu, double %add80, double %27)
  ret double %32
}